; Function Attrs: nounwind uwtable
define internal fastcc void @X11_DispatchMapNotify(ptr noundef nonnull captures(none) initializes((542, 543)) %0) unnamed_addr #1 {
  %2 = load ptr, ptr %0, align 8
  %3 = tail call zeroext i1 @SDL_SendWindowEvent(ptr noundef %2, i32 noundef 514, i32 noundef 0, i32 noundef 0) #12
  %4 = getelementptr inbounds nuw i8, ptr %0, i64 542
  store i8 1, ptr %4, align 2
  %5 = getelementptr inbounds nuw i8, ptr %2, i64 72
  %6 = load i64, ptr %5, align 8
  %7 = and i64 %6, 64
  %.not = icmp eq i64 %7, 0
  br i1 %.not, label %12, label %8

8:                                                ; preds = %1
  %9 = tail call zeroext i1 @SDL_SendWindowEvent(ptr noundef nonnull %2, i32 noundef 523, i32 noundef 0, i32 noundef 0) #12
  %10 = load ptr, ptr %0, align 8
  %11 = tail call zeroext i1 @SDL_SendWindowEvent(ptr noundef %10, i32 noundef 516, i32 noundef 0, i32 noundef 0) #12
  %.pre = load i64, ptr %5, align 8
  br label %12

12:                                               ; preds = %8, %1
  %13 = phi i64 [ %.pre, %8 ], [ %6, %1 ]
  %14 = and i64 %13, 512
  %.not8 = icmp eq i64 %14, 0
  br i1 %.not8, label %16, label %15

15:                                               ; preds = %12
  tail call void @SDL_UpdateWindowGrab(ptr noundef nonnull %2) #12
  br label %16

16:                                               ; preds = %15, %12
  ret void
}